; Function Attrs: mustprogress nofree norecurse nosync nounwind willreturn memory(argmem: read) uwtable
define dso_local i64 @ZSTD_sizeof_CDict(ptr noundef readonly %0) local_unnamed_addr #8 {
  %2 = icmp eq ptr %0, null
  br i1 %2, label %13, label %3

3:                                                ; preds = %1
  %4 = getelementptr inbounds nuw i8, ptr %0, i64 32
  %5 = load ptr, ptr %4, align 8
  %6 = icmp eq ptr %5, %0
  %7 = select i1 %6, i64 0, i64 6080
  %8 = getelementptr i8, ptr %0, i64 40
  %.val5 = load ptr, ptr %8, align 8
  %9 = ptrtoint ptr %.val5 to i64
  %10 = ptrtoint ptr %5 to i64
  %11 = sub i64 %9, %10
  %12 = add i64 %11, %7
  br label %13

13:                                               ; preds = %1, %3
  %.0 = phi i64 [ %12, %3 ], [ 0, %1 ]
  ret i64 %.0
}